target datalayout = "e-m:e-p270:32:32-p271:32:32-p272:64:64-i64:64-i128:128-f80:128-n8:16:32:64-S128"
target triple = "x86_64-pc-linux-gnu"

@.str.8 = private unnamed_addr constant [48 x i8] c"Abc_NtkSparsify: The network check has failed.\0A\00", align 1

; Function Attrs: nounwind uwtable
define ptr @Abc_NtkSparsify(ptr noundef %0, i32 noundef %1, i32 noundef %2) #0 {
  %4 = alloca ptr, align 8
  %5 = alloca ptr, align 8
  %6 = alloca i32, align 4
  %7 = alloca i32, align 4
  %8 = alloca ptr, align 8
  %9 = alloca i32, align 4
  store ptr %0, ptr %5, align 8, !tbaa !3
  store i32 %1, ptr %6, align 4, !tbaa !8
  store i32 %2, ptr %7, align 4, !tbaa !8
  call void @llvm.lifetime.start.p0(i64 8, ptr %8) #8
  %10 = load ptr, ptr %5, align 8, !tbaa !3
  %11 = load i32, ptr %6, align 4, !tbaa !8
  %12 = load i32, ptr %7, align 4, !tbaa !8
  %13 = call ptr @Abc_NtkSparsifyInternal(ptr noundef %10, i32 noundef %11, i32 noundef %12)
  store ptr %13, ptr %8, align 8, !tbaa !3
  %14 = load ptr, ptr %8, align 8, !tbaa !3
  %15 = icmp eq ptr %14, null
  br i1 %15, label %16, label %17

16:                                               ; preds = %3
  store ptr null, ptr %4, align 8
  store i32 1, ptr %9, align 4
  br label %26

17:                                               ; preds = %3
  %18 = load ptr, ptr %8, align 8, !tbaa !3
  %19 = call i32 @Abc_NtkCheck(ptr noundef %18)
  %20 = icmp ne i32 %19, 0
  br i1 %20, label %24, label %21

21:                                               ; preds = %17
  %22 = call i32 (ptr, ...) @printf(ptr noundef @.str.8)
  %23 = load ptr, ptr %8, align 8, !tbaa !3
  call void @Abc_NtkDelete(ptr noundef %23)
  store ptr null, ptr %4, align 8
  store i32 1, ptr %9, align 4
  br label %26

24:                                               ; preds = %17
  %25 = load ptr, ptr %8, align 8, !tbaa !3
  store ptr %25, ptr %4, align 8
  store i32 1, ptr %9, align 4
  br label %26

26:                                               ; preds = %24, %21, %16
  call void @llvm.lifetime.end.p0(i64 8, ptr %8) #8
  %27 = load ptr, ptr %4, align 8
  ret ptr %27
}