; Function Attrs: nounwind uwtable
define ptr @Abc_NtkSparsify(ptr noundef readonly captures(none) %0, i32 noundef %1, i32 noundef %2) local_unnamed_addr #0 {
  %4 = tail call ptr @Abc_NtkSparsifyInternal(ptr noundef %0, i32 noundef %1, i32 poison)
  %5 = icmp eq ptr %4, null
  br i1 %5, label %9, label %6

6:                                                ; preds = %3
  %7 = tail call i32 @Abc_NtkCheck(ptr noundef nonnull %4) #10
  %.not = icmp eq i32 %7, 0
  br i1 %.not, label %8, label %9

8:                                                ; preds = %6
  %puts = tail call i32 @puts(ptr nonnull dereferenceable(1) @str.3)
  tail call void @Abc_NtkDelete(ptr noundef nonnull %4) #10
  br label %9

9:                                                ; preds = %6, %3, %8
  %.0 = phi ptr [ null, %8 ], [ null, %3 ], [ %4, %6 ]
  ret ptr %.0
}